; ModuleID = 'source-C-CXX/56/184.c'
source_filename = "source-C-CXX/56/184.c"
target datalayout = "e-m:e-p270:32:32-p271:32:32-p272:64:64-i64:64-f80:128-n8:16:32:64-S128"
target triple = "x86_64-pc-linux-gnu"

@.str = private unnamed_addr constant [3 x i8] c"%d\00", align 1
@.str.1 = private unnamed_addr constant [3 x i8] c"%s\00", align 1
@.str.3 = private unnamed_addr constant [4 x i8] c"%c\0A\00", align 1

; Function Attrs: nofree nounwind sspstrong uwtable
define dso_local void @main() local_unnamed_addr #0 {
  %1 = alloca i32, align 4
  %2 = alloca [50 x [50 x i8]], align 16
  %3 = bitcast i32* %1 to i8*
  call void @llvm.lifetime.start.p0i8(i64 4, i8* nonnull %3) #5
  %4 = getelementptr inbounds [50 x [50 x i8]], [50 x [50 x i8]]* %2, i64 0, i64 0, i64 0
  call void @llvm.lifetime.start.p0i8(i64 2500, i8* nonnull %4) #5
  %5 = call i32 (i8*, ...) @__isoc99_scanf(i8* getelementptr inbounds ([3 x i8], [3 x i8]* @.str, i64 0, i64 0), i32* nonnull %1)
  %6 = load i32, i32* %1, align 4, !tbaa !5
  %7 = icmp sgt i32 %6, 0
  br i1 %7, label %10, label %84

8:                                                ; preds = %10
  %9 = icmp sgt i32 %15, 0
  br i1 %9, label %18, label %84

10:                                               ; preds = %0, %10
  %11 = phi i64 [ %14, %10 ], [ 0, %0 ]
  %12 = getelementptr inbounds [50 x [50 x i8]], [50 x [50 x i8]]* %2, i64 0, i64 %11, i64 0
  %13 = call i32 (i8*, ...) @__isoc99_scanf(i8* getelementptr inbounds ([3 x i8], [3 x i8]* @.str.1, i64 0, i64 0), i8* nonnull %12)
  %14 = add nuw nsw i64 %11, 1
  %15 = load i32, i32* %1, align 4, !tbaa !5
  %16 = sext i32 %15 to i64
  %17 = icmp slt i64 %14, %16
  br i1 %17, label %10, label %8, !llvm.loop !9

18:                                               ; preds = %8, %79
  %19 = phi i64 [ %80, %79 ], [ 0, %8 ]
  %20 = getelementptr inbounds [50 x [50 x i8]], [50 x [50 x i8]]* %2, i64 0, i64 %19, i64 0
  %21 = call i64 @strlen(i8* noundef nonnull %20) #6
  %22 = trunc i64 %21 to i32
  %23 = shl i64 %21, 32
  %24 = add i64 %23, -4294967296
  %25 = ashr exact i64 %24, 32
  %26 = getelementptr inbounds [50 x [50 x i8]], [50 x [50 x i8]]* %2, i64 0, i64 %19, i64 %25
  %27 = load i8, i8* %26, align 1, !tbaa !11
  switch i8 %27, label %79 [
    i8 114, label %40
    i8 121, label %35
    i8 103, label %28
  ]

28:                                               ; preds = %18
  %29 = add nsw i32 %22, -4
  %30 = icmp sgt i32 %22, 4
  br i1 %30, label %33, label %31

31:                                               ; preds = %28
  %32 = sext i32 %29 to i64
  br label %73

33:                                               ; preds = %28
  %34 = zext i32 %29 to i64
  br label %65

35:                                               ; preds = %18
  %36 = add i32 %22, -3
  %37 = icmp sgt i32 %22, 3
  br i1 %37, label %38, label %63

38:                                               ; preds = %35
  %39 = zext i32 %36 to i64
  br label %55

40:                                               ; preds = %18
  %41 = add i32 %22, -3
  %42 = icmp sgt i32 %22, 3
  br i1 %42, label %43, label %53

43:                                               ; preds = %40
  %44 = zext i32 %41 to i64
  br label %45

45:                                               ; preds = %43, %45
  %46 = phi i64 [ 0, %43 ], [ %51, %45 ]
  %47 = getelementptr inbounds [50 x [50 x i8]], [50 x [50 x i8]]* %2, i64 0, i64 %19, i64 %46
  %48 = load i8, i8* %47, align 1, !tbaa !11
  %49 = sext i8 %48 to i32
  %50 = call i32 @putchar(i32 %49)
  %51 = add nuw nsw i64 %46, 1
  %52 = icmp eq i64 %51, %44
  br i1 %52, label %53, label %45, !llvm.loop !12

53:                                               ; preds = %45, %40
  %54 = sext i32 %41 to i64
  br label %73

55:                                               ; preds = %38, %55
  %56 = phi i64 [ 0, %38 ], [ %61, %55 ]
  %57 = getelementptr inbounds [50 x [50 x i8]], [50 x [50 x i8]]* %2, i64 0, i64 %19, i64 %56
  %58 = load i8, i8* %57, align 1, !tbaa !11
  %59 = sext i8 %58 to i32
  %60 = call i32 @putchar(i32 %59)
  %61 = add nuw nsw i64 %56, 1
  %62 = icmp eq i64 %61, %39
  br i1 %62, label %63, label %55, !llvm.loop !13

63:                                               ; preds = %55, %35
  %64 = sext i32 %36 to i64
  br label %73

65:                                               ; preds = %33, %65
  %66 = phi i64 [ 0, %33 ], [ %71, %65 ]
  %67 = getelementptr inbounds [50 x [50 x i8]], [50 x [50 x i8]]* %2, i64 0, i64 %19, i64 %66
  %68 = load i8, i8* %67, align 1, !tbaa !11
  %69 = sext i8 %68 to i32
  %70 = call i32 @putchar(i32 %69)
  %71 = add nuw nsw i64 %66, 1
  %72 = icmp eq i64 %71, %34
  br i1 %72, label %73, label %65, !llvm.loop !14

73:                                               ; preds = %65, %31, %63, %53
  %74 = phi i64 [ %54, %53 ], [ %64, %63 ], [ %32, %31 ], [ %34, %65 ]
  %75 = getelementptr inbounds [50 x [50 x i8]], [50 x [50 x i8]]* %2, i64 0, i64 %19, i64 %74
  %76 = load i8, i8* %75, align 1, !tbaa !11
  %77 = sext i8 %76 to i32
  %78 = call i32 (i8*, ...) @printf(i8* nonnull dereferenceable(1) getelementptr inbounds ([4 x i8], [4 x i8]* @.str.3, i64 0, i64 0), i32 %77)
  br label %79

79:                                               ; preds = %73, %18
  %80 = add nuw nsw i64 %19, 1
  %81 = load i32, i32* %1, align 4, !tbaa !5
  %82 = sext i32 %81 to i64
  %83 = icmp slt i64 %80, %82
  br i1 %83, label %18, label %84, !llvm.loop !15

84:                                               ; preds = %79, %0, %8
  call void @llvm.lifetime.end.p0i8(i64 2500, i8* nonnull %4) #5
  call void @llvm.lifetime.end.p0i8(i64 4, i8* nonnull %3) #5
  ret void
}

; Function Attrs: argmemonly mustprogress nofree nosync nounwind willreturn
declare void @llvm.lifetime.start.p0i8(i64 immarg, i8* nocapture) #1

; Function Attrs: nofree nounwind
declare noundef i32 @__isoc99_scanf(i8* nocapture noundef readonly, ...) local_unnamed_addr #2

; Function Attrs: argmemonly mustprogress nofree nounwind readonly willreturn
declare i64 @strlen(i8* nocapture) local_unnamed_addr #3

; Function Attrs: nofree nounwind
declare noundef i32 @printf(i8* nocapture noundef readonly, ...) local_unnamed_addr #2

; Function Attrs: argmemonly mustprogress nofree nosync nounwind willreturn
declare void @llvm.lifetime.end.p0i8(i64 immarg, i8* nocapture) #1

; Function Attrs: nofree nounwind
declare noundef i32 @putchar(i32 noundef) local_unnamed_addr #4


!llvm.module.flags = !{!0, !1, !2, !3}
!llvm.ident = !{!4}

!0 = !{i32 1, !"wchar_size", i32 4}
!1 = !{i32 7, !"PIC Level", i32 2}
!2 = !{i32 7, !"PIE Level", i32 2}
!3 = !{i32 7, !"uwtable", i32 1}
!4 = !{!"clang version 13.0.0"}
!5 = !{!6, !6, i64 0}
!6 = !{!"int", !7, i64 0}
!7 = !{!"omnipotent char", !8, i64 0}
!8 = !{!"Simple C/C++ TBAA"}
!9 = distinct !{!9, !10}
!10 = !{!"llvm.loop.mustprogress"}
!11 = !{!7, !7, i64 0}
!12 = distinct !{!12, !10}
!13 = distinct !{!13, !10}
!14 = distinct !{!14, !10}
!15 = distinct !{!15, !10}
